target datalayout = "e-m:e-p270:32:32-p271:32:32-p272:64:64-i64:64-i128:128-f80:128-n8:16:32:64-S128"
target triple = "x86_64-pc-linux-gnu"

%class.JDK_Version = type { i32, i32, i32, i32, i32 }

; Function Attrs: mustprogress nounwind uwtable
define linkonce_odr hidden noundef i32 @_ZNK11JDK_Version12build_numberEv(ptr noundef nonnull align 4 dereferenceable(20) %0) #1 comdat align 2 {
  %2 = alloca ptr, align 8
  store ptr %0, ptr %2, align 8
  %3 = load ptr, ptr %2, align 8
  %4 = getelementptr inbounds %class.JDK_Version, ptr %3, i32 0, i32 4
  %5 = load i32, ptr %4, align 4
  ret i32 %5
}

; Function Attrs: mustprogress nounwind uwtable
define linkonce_odr hidden noundef i32 @_ZNK11JDK_Version13patch_versionEv(ptr noundef nonnull align 4 dereferenceable(20) %0) #1 comdat align 2 {
  %2 = alloca ptr, align 8
  store ptr %0, ptr %2, align 8
  %3 = load ptr, ptr %2, align 8
  %4 = getelementptr inbounds %class.JDK_Version, ptr %3, i32 0, i32 3
  %5 = load i32, ptr %4, align 4
  ret i32 %5
}

; Function Attrs: mustprogress nounwind uwtable
define linkonce_odr hidden noundef i32 @_ZNK11JDK_Version16security_versionEv(ptr noundef nonnull align 4 dereferenceable(20) %0) #1 comdat align 2 {
  %2 = alloca ptr, align 8
  store ptr %0, ptr %2, align 8
  %3 = load ptr, ptr %2, align 8
  %4 = getelementptr inbounds %class.JDK_Version, ptr %3, i32 0, i32 2
  %5 = load i32, ptr %4, align 4
  ret i32 %5
}

; Function Attrs: mustprogress nounwind uwtable
define linkonce_odr hidden noundef i32 @_ZNK11JDK_Version13minor_versionEv(ptr noundef nonnull align 4 dereferenceable(20) %0) #1 comdat align 2 {
  %2 = alloca ptr, align 8
  store ptr %0, ptr %2, align 8
  %3 = load ptr, ptr %2, align 8
  %4 = getelementptr inbounds %class.JDK_Version, ptr %3, i32 0, i32 1
  %5 = load i32, ptr %4, align 4
  ret i32 %5
}

; Function Attrs: mustprogress nounwind uwtable
define linkonce_odr hidden noundef i32 @_ZNK11JDK_Version13major_versionEv(ptr noundef nonnull align 4 dereferenceable(20) %0) #1 comdat align 2 {
  %2 = alloca ptr, align 8
  store ptr %0, ptr %2, align 8
  %3 = load ptr, ptr %2, align 8
  %4 = getelementptr inbounds %class.JDK_Version, ptr %3, i32 0, i32 0
  %5 = load i32, ptr %4, align 4
  ret i32 %5
}

; Function Attrs: mustprogress nounwind uwtable
define internal noundef i64 @_ZL18encode_jdk_versionRK11JDK_Version(ptr noundef nonnull align 4 dereferenceable(20) %0) #1 {
  %2 = alloca ptr, align 8
  store ptr %0, ptr %2, align 8
  %3 = load ptr, ptr %2, align 8
  %4 = call noundef i32 @_ZNK11JDK_Version13major_versionEv(ptr noundef nonnull align 4 dereferenceable(20) %3)
  %5 = sext i32 %4 to i64
  %6 = shl i64 %5, 32
  %7 = load ptr, ptr %2, align 8
  %8 = call noundef i32 @_ZNK11JDK_Version13minor_versionEv(ptr noundef nonnull align 4 dereferenceable(20) %7)
  %9 = sext i32 %8 to i64
  %10 = shl i64 %9, 24
  %11 = or i64 %6, %10
  %12 = load ptr, ptr %2, align 8
  %13 = call noundef i32 @_ZNK11JDK_Version16security_versionEv(ptr noundef nonnull align 4 dereferenceable(20) %12)
  %14 = sext i32 %13 to i64
  %15 = shl i64 %14, 16
  %16 = or i64 %11, %15
  %17 = load ptr, ptr %2, align 8
  %18 = call noundef i32 @_ZNK11JDK_Version13patch_versionEv(ptr noundef nonnull align 4 dereferenceable(20) %17)
  %19 = sext i32 %18 to i64
  %20 = shl i64 %19, 8
  %21 = or i64 %16, %20
  %22 = load ptr, ptr %2, align 8
  %23 = call noundef i32 @_ZNK11JDK_Version12build_numberEv(ptr noundef nonnull align 4 dereferenceable(20) %22)
  %24 = sext i32 %23 to i64
  %25 = shl i64 %24, 0
  %26 = or i64 %21, %25
  ret i64 %26
}

; Function Attrs: mustprogress nounwind uwtable
define hidden noundef i32 @_ZNK11JDK_Version7compareERKS_(ptr noundef nonnull align 4 dereferenceable(20) %0, ptr noundef nonnull align 4 dereferenceable(20) %1) #1 align 2 {
  %3 = alloca ptr, align 8
  %4 = alloca ptr, align 8
  %5 = alloca i64, align 8
  %6 = alloca i64, align 8
  store ptr %0, ptr %3, align 8
  store ptr %1, ptr %4, align 8
  %7 = load ptr, ptr %3, align 8
  %8 = call noundef i64 @_ZL18encode_jdk_versionRK11JDK_Version(ptr noundef nonnull align 4 dereferenceable(20) %7)
  store i64 %8, ptr %5, align 8
  %9 = load ptr, ptr %4, align 8
  %10 = call noundef i64 @_ZL18encode_jdk_versionRK11JDK_Version(ptr noundef nonnull align 4 dereferenceable(20) %9)
  store i64 %10, ptr %6, align 8
  %11 = load i64, ptr %5, align 8
  %12 = load i64, ptr %6, align 8
  %13 = icmp ugt i64 %11, %12
  br i1 %13, label %14, label %15

14:                                               ; preds = %2
  br label %20

15:                                               ; preds = %2
  %16 = load i64, ptr %5, align 8
  %17 = load i64, ptr %6, align 8
  %18 = icmp eq i64 %16, %17
  %19 = select i1 %18, i32 0, i32 -1
  br label %20

20:                                               ; preds = %15, %14
  %21 = phi i32 [ 1, %14 ], [ %19, %15 ]
  ret i32 %21
}