; Function Attrs: mustprogress nofree norecurse nosync nounwind willreturn memory(argmem: read) uwtable
define hidden noundef range(i32 -1, 2) i32 @_ZNK11JDK_Version7compareERKS_(ptr nocapture noundef nonnull readonly align 4 dereferenceable(20) %0, ptr nocapture noundef nonnull readonly align 4 dereferenceable(20) %1) local_unnamed_addr #6 align 2 {
  %3 = load i32, ptr %0, align 4
  %4 = sext i32 %3 to i64
  %5 = shl nsw i64 %4, 32
  %6 = getelementptr inbounds i8, ptr %0, i64 4
  %7 = load i32, ptr %6, align 4
  %8 = sext i32 %7 to i64
  %9 = shl nsw i64 %8, 24
  %10 = or i64 %9, %5
  %11 = getelementptr inbounds i8, ptr %0, i64 8
  %12 = load i32, ptr %11, align 4
  %13 = sext i32 %12 to i64
  %14 = shl nsw i64 %13, 16
  %15 = or i64 %10, %14
  %16 = getelementptr inbounds i8, ptr %0, i64 12
  %17 = load i32, ptr %16, align 4
  %18 = sext i32 %17 to i64
  %19 = shl nsw i64 %18, 8
  %20 = or i64 %15, %19
  %21 = getelementptr inbounds i8, ptr %0, i64 16
  %22 = load i32, ptr %21, align 4
  %23 = sext i32 %22 to i64
  %24 = or i64 %20, %23
  %25 = load i32, ptr %1, align 4
  %26 = sext i32 %25 to i64
  %27 = shl nsw i64 %26, 32
  %28 = getelementptr inbounds i8, ptr %1, i64 4
  %29 = load i32, ptr %28, align 4
  %30 = sext i32 %29 to i64
  %31 = shl nsw i64 %30, 24
  %32 = or i64 %31, %27
  %33 = getelementptr inbounds i8, ptr %1, i64 8
  %34 = load i32, ptr %33, align 4
  %35 = sext i32 %34 to i64
  %36 = shl nsw i64 %35, 16
  %37 = or i64 %32, %36
  %38 = getelementptr inbounds i8, ptr %1, i64 12
  %39 = load i32, ptr %38, align 4
  %40 = sext i32 %39 to i64
  %41 = shl nsw i64 %40, 8
  %42 = or i64 %37, %41
  %43 = getelementptr inbounds i8, ptr %1, i64 16
  %44 = load i32, ptr %43, align 4
  %45 = sext i32 %44 to i64
  %46 = or i64 %42, %45
  %47 = icmp ugt i64 %24, %46
  %48 = icmp ne i64 %24, %46
  %49 = sext i1 %48 to i32
  %50 = select i1 %47, i32 1, i32 %49
  ret i32 %50
}